ARM GAS  C:\Users\TUOMAS~1\AppData\Local\Temp\ccqcCZQb.s 			page 1


   1              		.syntax unified
   2              		.cpu cortex-m3
   3              		.fpu softvfp
   4              		.eabi_attribute 20, 1
   5              		.eabi_attribute 21, 1
   6              		.eabi_attribute 23, 3
   7              		.eabi_attribute 24, 1
   8              		.eabi_attribute 25, 1
   9              		.eabi_attribute 26, 1
  10              		.eabi_attribute 30, 1
  11              		.eabi_attribute 34, 1
  12              		.eabi_attribute 18, 4
  13              		.thumb
  14              		.syntax unified
  15              		.file	"main.c"
  16              		.text
  17              	.Ltext0:
  18              		.cfi_sections	.debug_frame
  19              		.global	__aeabi_i2f
  20              		.global	__aeabi_fdiv
  21              		.global	__aeabi_fmul
  22              		.section	.text.readBatteryVoltage,"ax",%progbits
  23              		.align	2
  24              		.global	readBatteryVoltage
  25              		.thumb
  26              		.thumb_func
  27              		.type	readBatteryVoltage, %function
  28              	readBatteryVoltage:
  29              	.LFB65:
  30              		.file 1 "main.c"
   1:main.c        **** /**
   2:main.c        **** * @mainpage ZumoBot Project
   3:main.c        **** * @brief    You can make your own ZumoBot with various sensors.
   4:main.c        **** * @details  <br><br>
   5:main.c        ****     <p>
   6:main.c        ****     <B>General</B><br>
   7:main.c        ****     You will use Pololu Zumo Shields for your robot project with CY8CKIT-059(PSoC 5LP) from Cypress
   8:main.c        ****     library has basic methods of various sensors and communications so that you can make what you w
   9:main.c        ****     <br><br>
  10:main.c        ****     </p>
  11:main.c        ****     
  12:main.c        ****     <p>
  13:main.c        ****     <B>Sensors</B><br>
  14:main.c        ****     &nbsp;Included: <br>
  15:main.c        ****         &nbsp;&nbsp;&nbsp;&nbsp;LSM303D: Accelerometer & Magnetometer<br>
  16:main.c        ****         &nbsp;&nbsp;&nbsp;&nbsp;L3GD20H: Gyroscope<br>
  17:main.c        ****         &nbsp;&nbsp;&nbsp;&nbsp;Reflectance sensor<br>
  18:main.c        ****         &nbsp;&nbsp;&nbsp;&nbsp;Motors
  19:main.c        ****     &nbsp;Wii nunchuck<br>
  20:main.c        ****     &nbsp;TSOP-2236: IR Receiver<br>
  21:main.c        ****     &nbsp;HC-SR04: Ultrasonic sensor<br>
  22:main.c        ****     &nbsp;APDS-9301: Ambient light sensor<br>
  23:main.c        ****     &nbsp;IR LED <br><br><br>
  24:main.c        ****     </p>
  25:main.c        ****     
  26:main.c        ****     <p>
  27:main.c        ****     <B>Communication</B><br>
ARM GAS  C:\Users\TUOMAS~1\AppData\Local\Temp\ccqcCZQb.s 			page 2


  28:main.c        ****     I2C, UART, Serial<br>
  29:main.c        ****     </p>
  30:main.c        **** */
  31:main.c        **** 
  32:main.c        **** #include <project.h>
  33:main.c        **** #include <stdio.h>
  34:main.c        **** #include "Motor.h"
  35:main.c        **** #include "Ultra.h"
  36:main.c        **** #include "Nunchuk.h"
  37:main.c        **** #include "Reflectance.h"
  38:main.c        **** #include "I2C_made.h"
  39:main.c        **** #include "Gyro.h"
  40:main.c        **** #include "Accel_magnet.h"
  41:main.c        **** #include "IR.h"
  42:main.c        **** #include "Ambient.h"
  43:main.c        **** #include "Beep.h"
  44:main.c        **** 
  45:main.c        **** int rread(void);
  46:main.c        **** 
  47:main.c        **** /**
  48:main.c        ****  * @file    main.c
  49:main.c        ****  * @brief   
  50:main.c        ****  * @details  ** You should enable global interrupt for operating properly. **<br>&nbsp;&nbsp;&nbsp;
  51:main.c        **** */
  52:main.c        **** 
  53:main.c        **** float readBatteryVoltage();
  54:main.c        **** float getPIDValue(float, float, float*, float*);
  55:main.c        **** 
  56:main.c        **** //battery level//
  57:main.c        **** int main()
  58:main.c        **** {
  59:main.c        ****     CyGlobalIntEnable; 
  60:main.c        ****     UART_1_Start();
  61:main.c        ****     ADC_Battery_Start();   
  62:main.c        ****     
  63:main.c        ****     sensor_isr_StartEx(sensor_isr_handler);
  64:main.c        ****     reflectance_start();
  65:main.c        ****     motor_start();
  66:main.c        ****     IR_led_Write(1);
  67:main.c        ****     
  68:main.c        ****     struct sensors_ sensors;
  69:main.c        ****     float volts = 0.0;
  70:main.c        ****     int loopTime = 600000000;
  71:main.c        ****     int ledTime = 0;
  72:main.c        ****     int ledState = 0;
  73:main.c        ****     int buttonState = 1;
  74:main.c        ****     int buttonValue = 0;
  75:main.c        ****     float speed = 255;
  76:main.c        ****     
  77:main.c        ****     float leftControl = 1;
  78:main.c        ****     float rightControl = 1;
  79:main.c        ****     
  80:main.c        ****     int white[4] = { 0, 0, 0, 0 };
  81:main.c        ****     int black[4] = { 0, 0, 0, 0 };
  82:main.c        ****     float status[4] = { 0, 0, 0, 0 };
  83:main.c        ****     
  84:main.c        ****     int lastLeft = 0;
ARM GAS  C:\Users\TUOMAS~1\AppData\Local\Temp\ccqcCZQb.s 			page 3


  85:main.c        ****     int lastRight = 0;
  86:main.c        ****     
  87:main.c        ****     float lastErrorRight = 0;
  88:main.c        ****     float lastErrorLeft = 0;
  89:main.c        ****     
  90:main.c        ****     float intergalRight = 0;
  91:main.c        ****     float intergalLeft = 0;
  92:main.c        ****     
  93:main.c        ****     int delay = 10;
  94:main.c        ****     
  95:main.c        ****     int state = 1;
  96:main.c        ****     int start = 0;
  97:main.c        ****     int stop = 0;
  98:main.c        ****     int stopCount = 0;
  99:main.c        **** 
 100:main.c        ****     printf("\nBoot\n");
 101:main.c        **** 
 102:main.c        ****     //BatteryLed_Write(1); // Switch led on 
 103:main.c        ****     BatteryLed_Write(0); // Switch led off 
 104:main.c        ****     //uint8 button;
 105:main.c        ****     //button = SW1_Read(); // read SW1 on pSoC board
 106:main.c        ****     
 107:main.c        ****     motor_forward(0, 10);
 108:main.c        **** 
 109:main.c        ****     for(;;)
 110:main.c        ****     {
 111:main.c        ****         ledTime++;
 112:main.c        ****         
 113:main.c        ****         if (loopTime >= 3000 * (100 / delay)) {
 114:main.c        ****             volts = readBatteryVoltage();
 115:main.c        ****             printf("Calculated voltage %f\r\n", volts);
 116:main.c        ****             loopTime = 0;
 117:main.c        ****         }
 118:main.c        ****         
 119:main.c        ****         if (volts <= 4 && volts != 0) {
 120:main.c        ****             if (ledTime >= 50 * (100 / delay)) {
 121:main.c        ****                 ledState = !ledState;
 122:main.c        ****                 BatteryLed_Write(ledState);
 123:main.c        ****                 ledTime = 0;
 124:main.c        ****             }
 125:main.c        ****             
 126:main.c        ****             continue;
 127:main.c        ****         } else if (ledState == 1) {
 128:main.c        ****             ledState = !ledState;
 129:main.c        ****             BatteryLed_Write(ledState);
 130:main.c        ****         }
 131:main.c        ****         
 132:main.c        ****         int button = SW1_Read();
 133:main.c        ****         if (!button && buttonState) {
 134:main.c        ****             buttonState = 0;
 135:main.c        ****             buttonValue = 0; 
 136:main.c        ****         } else {
 137:main.c        ****             buttonValue = 1;
 138:main.c        ****         }
 139:main.c        ****         
 140:main.c        ****         if (button && !buttonState) buttonState = 1;
 141:main.c        ****         
ARM GAS  C:\Users\TUOMAS~1\AppData\Local\Temp\ccqcCZQb.s 			page 4


 142:main.c        ****         /*printf("State %d \n", button);
 143:main.c        ****         
 144:main.c        ****         if (buttonState != 0 && button == 0) {
 145:main.c        ****             buttonValue = !buttonValue;
 146:main.c        ****             buttonState = 0;
 147:main.c        ****         } else if (buttonState == 0 && button == 1) {
 148:main.c        ****             buttonState = 1;
 149:main.c        ****         }*/
 150:main.c        ****         
 151:main.c        ****         switch (state) {
 152:main.c        ****             case 1:
 153:main.c        ****                 if (ledTime >= 100 * (100 / delay)) {
 154:main.c        ****                     ledState = !ledState;
 155:main.c        ****                     BatteryLed_Write(ledState);
 156:main.c        ****                     ledTime = 0;
 157:main.c        ****                 }
 158:main.c        ****                 
 159:main.c        ****                 if (buttonValue == 0) {
 160:main.c        ****                     reflectance_read(&sensors);
 161:main.c        ****                     white[0] = sensors.l3;
 162:main.c        ****                     white[1] = sensors.l1;
 163:main.c        ****                     white[2] = sensors.r1;
 164:main.c        ****                     white[3] = sensors.r3;
 165:main.c        ****                     
 166:main.c        ****                     Beep(10, 100);
 167:main.c        ****                     
 168:main.c        ****                     state++;
 169:main.c        ****                 }
 170:main.c        ****                 
 171:main.c        ****                 // leftControl = getPIDValue(leftControl, button, &intergalLeft, &lastErrorLeft); 
 172:main.c        ****                 // printf("%f \n", leftControl);
 173:main.c        ****                 
 174:main.c        ****                 break;
 175:main.c        ****                 
 176:main.c        ****             case 2:
 177:main.c        ****                 if (ledTime >= 200 * (delay / 100)) {
 178:main.c        ****                     ledState = !ledState;
 179:main.c        ****                     BatteryLed_Write(ledState);
 180:main.c        ****                     ledTime = 0;
 181:main.c        ****                 }
 182:main.c        ****                 
 183:main.c        ****                 if (buttonValue == 0) {
 184:main.c        ****                     reflectance_read(&sensors);
 185:main.c        ****                     black[0] = sensors.l3;
 186:main.c        ****                     black[1] = sensors.l1;
 187:main.c        ****                     black[2] = sensors.r1;
 188:main.c        ****                     black[3] = sensors.r3;
 189:main.c        ****                     
 190:main.c        ****                     Beep(10, 200);
 191:main.c        ****                     
 192:main.c        ****                     state++;
 193:main.c        ****                 }
 194:main.c        ****                 
 195:main.c        ****                 break;
 196:main.c        ****                 
 197:main.c        ****             case 3:
 198:main.c        ****                 printf("%d - %d - %d - %d \n", white[0], white[1], white[2], white[3]);
ARM GAS  C:\Users\TUOMAS~1\AppData\Local\Temp\ccqcCZQb.s 			page 5


 199:main.c        ****                 printf("%d - %d - %d - %d \n", black[0], black[1], black[2], black[3]);
 200:main.c        ****                 
 201:main.c        ****                 Beep(20, 200);
 202:main.c        ****                 Beep(10, 100);
 203:main.c        ****                 
 204:main.c        ****                 state++;
 205:main.c        ****                 break;
 206:main.c        ****                 
 207:main.c        ****             case 4:
 208:main.c        ****                 reflectance_read(&sensors);
 209:main.c        ****                 status[0] = (float)(sensors.l3 - white[0]) / (float)(black[0] - white[0]);
 210:main.c        ****                 status[1] = (float)(sensors.l1 - white[1]) / (float)(black[1] - white[1]);
 211:main.c        ****                 status[2] = (float)(sensors.r1 - white[2]) / (float)(black[2] - white[2]);
 212:main.c        ****                 status[3] = (float)(sensors.r3 - white[3]) / (float)(black[3] - white[3]);
 213:main.c        ****                 
 214:main.c        ****                 // printf("%f, %f, %f, %f \n", status[0], status[1], status[2], status[3]);
 215:main.c        ****                 
 216:main.c        ****                 int left = 0;
 217:main.c        ****                 int right = 0;
 218:main.c        ****                 
 219:main.c        ****                 float over = 0.2;
 220:main.c        ****                 if (status[1] > over) {
 221:main.c        ****                     right = 1;
 222:main.c        ****                 }
 223:main.c        ****                 
 224:main.c        ****                 if (status[0] > over) {
 225:main.c        ****                     right = 2;
 226:main.c        ****                 }
 227:main.c        ****                 
 228:main.c        ****                 if (status[2] > over) {
 229:main.c        ****                     left = 1;
 230:main.c        ****                 }
 231:main.c        ****                 
 232:main.c        ****                 if (status[3] > over) {
 233:main.c        ****                     left = 2;
 234:main.c        ****                 }
 235:main.c        ****                 
 236:main.c        ****                 // printf("%d, %d \n", left, right);
 237:main.c        ****                 
 238:main.c        ****                 if ((lastLeft == 2 || lastRight == 2) && (left == 0 && right == 0)) {
 239:main.c        ****                     left = lastLeft;
 240:main.c        ****                     right = lastRight;
 241:main.c        ****                 }
 242:main.c        ****           
 243:main.c        ****                 if (left == 0 && right == 0) {
 244:main.c        ****                     left = 1;
 245:main.c        ****                     right = 1;
 246:main.c        ****                 }
 247:main.c        ****                 
 248:main.c        ****                 if (left == 2 && right == 2) {
 249:main.c        ****                     left = 1;
 250:main.c        ****                     right = 1;
 251:main.c        ****                 }
 252:main.c        ****                 
 253:main.c        ****                 lastLeft = left;
 254:main.c        ****                 lastRight = right;
 255:main.c        ****                 
ARM GAS  C:\Users\TUOMAS~1\AppData\Local\Temp\ccqcCZQb.s 			page 6


 256:main.c        ****                 float leftSpeed = left > 0 ? speed : 0;
 257:main.c        ****                 float rightSpeed = right > 0 ? speed : 0;
 258:main.c        ****                 
 259:main.c        ****                 //if (left == 1 && right == 0) rightSpeed = 0.35 * speed;
 260:main.c        ****                 //if (right == 1 && left == 0) leftSpeed = 0.35 * speed;
 261:main.c        ****                 
 262:main.c        ****                 leftControl = getPIDValue(leftControl, (right == 0 || (right == left) ? 1 : 0), &in
 263:main.c        ****                 rightControl = getPIDValue(rightControl, (left == 0 || (right == left) ? 1 : 0), &i
 264:main.c        ****                 
 265:main.c        ****                 leftSpeed = leftControl * speed;
 266:main.c        ****                 rightSpeed = rightControl * speed;
 267:main.c        ****                
 268:main.c        ****                 if (left == 2) {
 269:main.c        ****                     rightSpeed = 0;
 270:main.c        ****                     leftSpeed = speed;
 271:main.c        ****                 }
 272:main.c        ****                 
 273:main.c        ****                 if (right == 2) {
 274:main.c        ****                     leftSpeed = 0;
 275:main.c        ****                     rightSpeed = speed;
 276:main.c        ****                 }
 277:main.c        ****                 
 278:main.c        ****                 /*if (status[0] > 0.9 && status[1] > 0.9 && status[2] > 0.9 && status[3] > 0.9 && s
 279:main.c        ****                     stop = 1;
 280:main.c        ****                 } else if (status[0] > 0.1 && status[1] > 0.1 && status[2] > 0.1 && status[3] > 0.1
 281:main.c        ****                     stop = 0;
 282:main.c        ****                     stopCount++;
 283:main.c        ****                 }*/
 284:main.c        ****                 
 285:main.c        ****                 if (stopCount == 2) {
 286:main.c        ****                     leftSpeed = speed;
 287:main.c        ****                     rightSpeed = speed;
 288:main.c        ****                 }
 289:main.c        ****                 
 290:main.c        ****                 //printf("%d, %d \n", left, right);
 291:main.c        ****                 
 292:main.c        ****                 //printf("%d, %d \n", left, right);
 293:main.c        ****                 
 294:main.c        ****                 printf("%f, %f \n", leftSpeed, rightSpeed);
 295:main.c        ****                 
 296:main.c        ****                 //printf("%f, %f \n", leftSpeed, rightSpeed);
 297:main.c        ****                 
 298:main.c        ****                 ///*if (right == 1 && left == 0)*/ leftSpeed = leftControl * speed;
 299:main.c        ****                 ///*if (left == 1 && right == 0)*/ rightSpeed = rightControl * speed;
 300:main.c        ****                 
 301:main.c        ****                 motor_turn(leftSpeed, rightSpeed, delay);
 302:main.c        ****                 
 303:main.c        ****                 if (buttonValue == 0) state++;
 304:main.c        ****                 if (stopCount > 1) state++;
 305:main.c        ****                 
 306:main.c        ****                 break;
 307:main.c        ****                 
 308:main.c        ****             default:
 309:main.c        ****                 motor_forward(0, delay);
 310:main.c        ****                 if (buttonValue == 0) {
 311:main.c        ****                     speed += 25;
 312:main.c        ****                     state--;
ARM GAS  C:\Users\TUOMAS~1\AppData\Local\Temp\ccqcCZQb.s 			page 7


 313:main.c        ****                 }
 314:main.c        ****                 break;
 315:main.c        ****         }
 316:main.c        ****         
 317:main.c        ****         
 318:main.c        ****         //reflectance_read(&sensors);
 319:main.c        ****         //printf("%d - %d - %d - %d \n", sensors.l3, sensors.l1, sensors.r1, sensors.r3);
 320:main.c        **** 
 321:main.c        ****         // BatteryLed_Write(buttonValue);
 322:main.c        ****         
 323:main.c        ****         CyDelay(delay);
 324:main.c        ****         loopTime++;
 325:main.c        ****     }
 326:main.c        ****  }   
 327:main.c        **** //*/
 328:main.c        **** 
 329:main.c        **** float readBatteryVoltage()
 330:main.c        **** {
  31              		.loc 1 330 0
  32              		.cfi_startproc
  33              		@ args = 0, pretend = 0, frame = 0
  34              		@ frame_needed = 0, uses_anonymous_args = 0
  35 0000 08B5     		push	{r3, lr}
  36              		.cfi_def_cfa_offset 8
  37              		.cfi_offset 3, -8
  38              		.cfi_offset 14, -4
  39              	.LVL0:
 331:main.c        ****     int16 adcresult = 0;
 332:main.c        ****     ADC_Battery_StartConvert();
  40              		.loc 1 332 0
  41 0002 FFF7FEFF 		bl	ADC_Battery_StartConvert
  42              	.LVL1:
 333:main.c        ****     if(ADC_Battery_IsEndConversion(ADC_Battery_WAIT_FOR_RESULT)) {
  43              		.loc 1 333 0
  44 0006 0020     		movs	r0, #0
  45 0008 FFF7FEFF 		bl	ADC_Battery_IsEndConversion
  46              	.LVL2:
  47 000c 70B1     		cbz	r0, .L3
 334:main.c        ****         adcresult = ADC_Battery_GetResult16();
  48              		.loc 1 334 0
  49 000e FFF7FEFF 		bl	ADC_Battery_GetResult16
  50              	.LVL3:
 335:main.c        ****         return ((float)adcresult / 4095) * 5 * 1.5;
  51              		.loc 1 335 0
  52 0012 FFF7FEFF 		bl	__aeabi_i2f
  53              	.LVL4:
  54 0016 0649     		ldr	r1, .L5
  55 0018 FFF7FEFF 		bl	__aeabi_fdiv
  56              	.LVL5:
  57 001c 0549     		ldr	r1, .L5+4
  58 001e FFF7FEFF 		bl	__aeabi_fmul
  59              	.LVL6:
  60 0022 4FF07F51 		mov	r1, #1069547520
  61 0026 FFF7FEFF 		bl	__aeabi_fmul
  62              	.LVL7:
  63 002a 08BD     		pop	{r3, pc}
  64              	.LVL8:
ARM GAS  C:\Users\TUOMAS~1\AppData\Local\Temp\ccqcCZQb.s 			page 8


  65              	.L3:
 336:main.c        ****     }
 337:main.c        ****     return 0;
  66              		.loc 1 337 0
  67 002c 0020     		movs	r0, #0
 338:main.c        **** }
  68              		.loc 1 338 0
  69 002e 08BD     		pop	{r3, pc}
  70              	.L6:
  71              		.align	2
  72              	.L5:
  73 0030 00F07F45 		.word	1166012416
  74 0034 0000A040 		.word	1084227584
  75              		.cfi_endproc
  76              	.LFE65:
  77              		.size	readBatteryVoltage, .-readBatteryVoltage
  78              		.global	__aeabi_fsub
  79              		.global	__aeabi_fadd
  80              		.global	__aeabi_fcmpgt
  81              		.global	__aeabi_fcmplt
  82              		.section	.text.getPIDValue,"ax",%progbits
  83              		.align	2
  84              		.global	getPIDValue
  85              		.thumb
  86              		.thumb_func
  87              		.type	getPIDValue, %function
  88              	getPIDValue:
  89              	.LFB66:
 339:main.c        **** 
 340:main.c        **** float getPIDValue(float current, float target, float *integral, float *lastError)
 341:main.c        **** {
  90              		.loc 1 341 0
  91              		.cfi_startproc
  92              		@ args = 0, pretend = 0, frame = 0
  93              		@ frame_needed = 0, uses_anonymous_args = 0
  94              	.LVL9:
  95 0000 2DE9F041 		push	{r4, r5, r6, r7, r8, lr}
  96              		.cfi_def_cfa_offset 24
  97              		.cfi_offset 4, -24
  98              		.cfi_offset 5, -20
  99              		.cfi_offset 6, -16
 100              		.cfi_offset 7, -12
 101              		.cfi_offset 8, -8
 102              		.cfi_offset 14, -4
 103 0004 0C46     		mov	r4, r1
 104 0006 1746     		mov	r7, r2
 105 0008 1E46     		mov	r6, r3
 106              	.LVL10:
 342:main.c        ****     float kp = 0.45;
 343:main.c        ****     float ki = 0.045;
 344:main.c        ****     float kd = 0.2;
 345:main.c        **** 
 346:main.c        ****     float error = target - current;
 107              		.loc 1 346 0
 108 000a 0146     		mov	r1, r0
 109              	.LVL11:
 110 000c 2046     		mov	r0, r4
ARM GAS  C:\Users\TUOMAS~1\AppData\Local\Temp\ccqcCZQb.s 			page 9


 111              	.LVL12:
 112 000e FFF7FEFF 		bl	__aeabi_fsub
 113              	.LVL13:
 114 0012 0446     		mov	r4, r0
 115              	.LVL14:
 347:main.c        ****     *integral = *integral + error;
 116              		.loc 1 347 0
 117 0014 3968     		ldr	r1, [r7]	@ float
 118 0016 FFF7FEFF 		bl	__aeabi_fadd
 119              	.LVL15:
 120 001a 0546     		mov	r5, r0
 121 001c 3860     		str	r0, [r7]	@ float
 348:main.c        ****     float derivate = error - *lastError;
 122              		.loc 1 348 0
 123 001e 3168     		ldr	r1, [r6]	@ float
 124 0020 2046     		mov	r0, r4
 125 0022 FFF7FEFF 		bl	__aeabi_fsub
 126              	.LVL16:
 127 0026 0746     		mov	r7, r0
 128              	.LVL17:
 349:main.c        ****     
 350:main.c        ****     float pwm = (kp * error) + (ki * *integral) + (kd * derivate);
 129              		.loc 1 350 0
 130 0028 1449     		ldr	r1, .L12
 131 002a 2046     		mov	r0, r4
 132              	.LVL18:
 133 002c FFF7FEFF 		bl	__aeabi_fmul
 134              	.LVL19:
 135 0030 8046     		mov	r8, r0
 136 0032 1349     		ldr	r1, .L12+4
 137 0034 2846     		mov	r0, r5
 138 0036 FFF7FEFF 		bl	__aeabi_fmul
 139              	.LVL20:
 140 003a 0146     		mov	r1, r0
 141 003c 4046     		mov	r0, r8
 142 003e FFF7FEFF 		bl	__aeabi_fadd
 143              	.LVL21:
 144 0042 0546     		mov	r5, r0
 145 0044 0F49     		ldr	r1, .L12+8
 146 0046 3846     		mov	r0, r7
 147 0048 FFF7FEFF 		bl	__aeabi_fmul
 148              	.LVL22:
 149 004c 0146     		mov	r1, r0
 150 004e 2846     		mov	r0, r5
 151 0050 FFF7FEFF 		bl	__aeabi_fadd
 152              	.LVL23:
 153 0054 0546     		mov	r5, r0
 154              	.LVL24:
 351:main.c        **** 
 352:main.c        ****     if (pwm > 1) pwm = 1;
 155              		.loc 1 352 0
 156 0056 4FF07E51 		mov	r1, #1065353216
 157 005a FFF7FEFF 		bl	__aeabi_fcmpgt
 158              	.LVL25:
 159 005e 28B9     		cbnz	r0, .L9
 353:main.c        ****     else if (pwm < 0) pwm = 0;
 160              		.loc 1 353 0
ARM GAS  C:\Users\TUOMAS~1\AppData\Local\Temp\ccqcCZQb.s 			page 10


 161 0060 0021     		movs	r1, #0
 162 0062 2846     		mov	r0, r5
 163 0064 FFF7FEFF 		bl	__aeabi_fcmplt
 164              	.LVL26:
 165 0068 20B1     		cbz	r0, .L8
 166 006a 02E0     		b	.L10
 167              	.L9:
 352:main.c        ****     else if (pwm < 0) pwm = 0;
 168              		.loc 1 352 0
 169 006c 4FF07E55 		mov	r5, #1065353216
 170              	.LVL27:
 171 0070 00E0     		b	.L8
 172              	.LVL28:
 173              	.L10:
 174              		.loc 1 353 0
 175 0072 0025     		movs	r5, #0
 176              	.LVL29:
 177              	.L8:
 354:main.c        ****     
 355:main.c        ****     
 356:main.c        ****     *lastError = error;
 178              		.loc 1 356 0
 179 0074 3460     		str	r4, [r6]	@ float
 357:main.c        ****     
 358:main.c        ****     return pwm;
 359:main.c        **** }
 180              		.loc 1 359 0
 181 0076 2846     		mov	r0, r5
 182 0078 BDE8F081 		pop	{r4, r5, r6, r7, r8, pc}
 183              	.LVL30:
 184              	.L13:
 185              		.align	2
 186              	.L12:
 187 007c 6666E63E 		.word	1055286886
 188 0080 EC51383D 		.word	1027101164
 189 0084 CDCC4C3E 		.word	1045220557
 190              		.cfi_endproc
 191              	.LFE66:
 192              		.size	getPIDValue, .-getPIDValue
 193              		.global	__aeabi_f2d
 194              		.global	__aeabi_fcmple
 195              		.global	__aeabi_fcmpeq
 196              		.global	__aeabi_f2uiz
 197              		.section	.text.main,"ax",%progbits
 198              		.align	2
 199              		.global	main
 200              		.thumb
 201              		.thumb_func
 202              		.type	main, %function
 203              	main:
 204              	.LFB64:
  58:main.c        ****     CyGlobalIntEnable; 
 205              		.loc 1 58 0
 206              		.cfi_startproc
 207              		@ args = 0, pretend = 0, frame = 104
 208              		@ frame_needed = 0, uses_anonymous_args = 0
 209 0000 2DE9F04F 		push	{r4, r5, r6, r7, r8, r9, r10, fp, lr}
ARM GAS  C:\Users\TUOMAS~1\AppData\Local\Temp\ccqcCZQb.s 			page 11


 210              		.cfi_def_cfa_offset 36
 211              		.cfi_offset 4, -36
 212              		.cfi_offset 5, -32
 213              		.cfi_offset 6, -28
 214              		.cfi_offset 7, -24
 215              		.cfi_offset 8, -20
 216              		.cfi_offset 9, -16
 217              		.cfi_offset 10, -12
 218              		.cfi_offset 11, -8
 219              		.cfi_offset 14, -4
 220 0004 9DB0     		sub	sp, sp, #116
 221              		.cfi_def_cfa_offset 152
  59:main.c        ****     UART_1_Start();
 222              		.loc 1 59 0
 223              		.syntax unified
 224              	@ 59 "main.c" 1
 225 0006 62B6     		CPSIE   i
 226              	@ 0 "" 2
  60:main.c        ****     ADC_Battery_Start();   
 227              		.loc 1 60 0
 228              		.thumb
 229              		.syntax unified
 230 0008 FFF7FEFF 		bl	UART_1_Start
 231              	.LVL31:
  61:main.c        ****     
 232              		.loc 1 61 0
 233 000c FFF7FEFF 		bl	ADC_Battery_Start
 234              	.LVL32:
  63:main.c        ****     reflectance_start();
 235              		.loc 1 63 0
 236 0010 A848     		ldr	r0, .L66
 237 0012 FFF7FEFF 		bl	sensor_isr_StartEx
 238              	.LVL33:
  64:main.c        ****     motor_start();
 239              		.loc 1 64 0
 240 0016 FFF7FEFF 		bl	reflectance_start
 241              	.LVL34:
  65:main.c        ****     IR_led_Write(1);
 242              		.loc 1 65 0
 243 001a FFF7FEFF 		bl	motor_start
 244              	.LVL35:
  66:main.c        ****     
 245              		.loc 1 66 0
 246 001e 0120     		movs	r0, #1
 247 0020 FFF7FEFF 		bl	IR_led_Write
 248              	.LVL36:
  80:main.c        ****     int black[4] = { 0, 0, 0, 0 };
 249              		.loc 1 80 0
 250 0024 0025     		movs	r5, #0
 251 0026 1695     		str	r5, [sp, #88]
 252 0028 1795     		str	r5, [sp, #92]
 253 002a 1895     		str	r5, [sp, #96]
 254 002c 1995     		str	r5, [sp, #100]
  81:main.c        ****     float status[4] = { 0, 0, 0, 0 };
 255              		.loc 1 81 0
 256 002e 1295     		str	r5, [sp, #72]
 257 0030 1395     		str	r5, [sp, #76]
ARM GAS  C:\Users\TUOMAS~1\AppData\Local\Temp\ccqcCZQb.s 			page 12


 258 0032 1495     		str	r5, [sp, #80]
 259 0034 1595     		str	r5, [sp, #84]
 260              	.LVL37:
  87:main.c        ****     float lastErrorLeft = 0;
 261              		.loc 1 87 0
 262 0036 0026     		movs	r6, #0
 263 0038 1196     		str	r6, [sp, #68]	@ float
  88:main.c        ****     
 264              		.loc 1 88 0
 265 003a 1096     		str	r6, [sp, #64]	@ float
  90:main.c        ****     float intergalLeft = 0;
 266              		.loc 1 90 0
 267 003c 0F96     		str	r6, [sp, #60]	@ float
  91:main.c        ****     
 268              		.loc 1 91 0
 269 003e 0E96     		str	r6, [sp, #56]	@ float
 270              	.LVL38:
 100:main.c        **** 
 271              		.loc 1 100 0
 272 0040 9D48     		ldr	r0, .L66+4
 273 0042 FFF7FEFF 		bl	puts
 274              	.LVL39:
 103:main.c        ****     //uint8 button;
 275              		.loc 1 103 0
 276 0046 2846     		mov	r0, r5
 277 0048 FFF7FEFF 		bl	BatteryLed_Write
 278              	.LVL40:
 107:main.c        **** 
 279              		.loc 1 107 0
 280 004c 0A21     		movs	r1, #10
 281 004e 2846     		mov	r0, r5
 282 0050 FFF7FEFF 		bl	motor_forward
 283              	.LVL41:
  95:main.c        ****     int start = 0;
 284              		.loc 1 95 0
 285 0054 4FF0010A 		mov	r10, #1
  85:main.c        ****     
 286              		.loc 1 85 0
 287 0058 0495     		str	r5, [sp, #16]
  84:main.c        ****     int lastRight = 0;
 288              		.loc 1 84 0
 289 005a A846     		mov	r8, r5
  78:main.c        ****     
 290              		.loc 1 78 0
 291 005c 4FF07E53 		mov	r3, #1065353216
 292 0060 0793     		str	r3, [sp, #28]	@ float
  77:main.c        ****     float rightControl = 1;
 293              		.loc 1 77 0
 294 0062 0693     		str	r3, [sp, #24]	@ float
  75:main.c        ****     
 295              		.loc 1 75 0
 296 0064 954B     		ldr	r3, .L66+8
 297 0066 0A93     		str	r3, [sp, #40]	@ float
  73:main.c        ****     int buttonValue = 0;
 298              		.loc 1 73 0
 299 0068 D346     		mov	fp, r10
  72:main.c        ****     int buttonState = 1;
ARM GAS  C:\Users\TUOMAS~1\AppData\Local\Temp\ccqcCZQb.s 			page 13


 300              		.loc 1 72 0
 301 006a A946     		mov	r9, r5
  70:main.c        ****     int ledTime = 0;
 302              		.loc 1 70 0
 303 006c 944C     		ldr	r4, .L66+12
  69:main.c        ****     int loopTime = 600000000;
 304              		.loc 1 69 0
 305 006e 0396     		str	r6, [sp, #12]	@ float
 306              	.LVL42:
 307              	.L15:
 308              	.LBB2:
 111:main.c        ****         
 309              		.loc 1 111 0
 310 0070 0135     		adds	r5, r5, #1
 311              	.LVL43:
 113:main.c        ****             volts = readBatteryVoltage();
 312              		.loc 1 113 0
 313 0072 47F22F53 		movw	r3, #29999
 314 0076 9C42     		cmp	r4, r3
 315 0078 0ADD     		ble	.L16
 114:main.c        ****             printf("Calculated voltage %f\r\n", volts);
 316              		.loc 1 114 0
 317 007a FFF7FEFF 		bl	readBatteryVoltage
 318              	.LVL44:
 319 007e 0390     		str	r0, [sp, #12]	@ float
 320              	.LVL45:
 115:main.c        ****             loopTime = 0;
 321              		.loc 1 115 0
 322 0080 FFF7FEFF 		bl	__aeabi_f2d
 323              	.LVL46:
 324 0084 0246     		mov	r2, r0
 325 0086 0B46     		mov	r3, r1
 326 0088 8E48     		ldr	r0, .L66+16
 327 008a FFF7FEFF 		bl	printf
 328              	.LVL47:
 116:main.c        ****         }
 329              		.loc 1 116 0
 330 008e 0024     		movs	r4, #0
 331              	.LVL48:
 332              	.L16:
 119:main.c        ****             if (ledTime >= 50 * (100 / delay)) {
 333              		.loc 1 119 0
 334 0090 4FF08141 		mov	r1, #1082130432
 335 0094 039E     		ldr	r6, [sp, #12]	@ float
 336 0096 3046     		mov	r0, r6
 337 0098 FFF7FEFF 		bl	__aeabi_fcmple
 338              	.LVL49:
 339 009c 70B1     		cbz	r0, .L17
 119:main.c        ****             if (ledTime >= 50 * (100 / delay)) {
 340              		.loc 1 119 0 is_stmt 0 discriminator 1
 341 009e 0021     		movs	r1, #0
 342 00a0 3046     		mov	r0, r6
 343 00a2 FFF7FEFF 		bl	__aeabi_fcmpeq
 344              	.LVL50:
 345 00a6 48B9     		cbnz	r0, .L17
 120:main.c        ****                 ledState = !ledState;
 346              		.loc 1 120 0 is_stmt 1
ARM GAS  C:\Users\TUOMAS~1\AppData\Local\Temp\ccqcCZQb.s 			page 14


 347 00a8 B5F5FA7F 		cmp	r5, #500
 348 00ac E0DB     		blt	.L15
 121:main.c        ****                 BatteryLed_Write(ledState);
 349              		.loc 1 121 0
 350 00ae 89F00109 		eor	r9, r9, #1
 351              	.LVL51:
 122:main.c        ****                 ledTime = 0;
 352              		.loc 1 122 0
 353 00b2 4846     		mov	r0, r9
 354 00b4 FFF7FEFF 		bl	BatteryLed_Write
 355              	.LVL52:
 123:main.c        ****             }
 356              		.loc 1 123 0
 357 00b8 0025     		movs	r5, #0
 126:main.c        ****         } else if (ledState == 1) {
 358              		.loc 1 126 0
 359 00ba D9E7     		b	.L15
 360              	.LVL53:
 361              	.L17:
 127:main.c        ****             ledState = !ledState;
 362              		.loc 1 127 0
 363 00bc B9F1000F 		cmp	r9, #0
 364 00c0 04D0     		beq	.L22
 128:main.c        ****             BatteryLed_Write(ledState);
 365              		.loc 1 128 0
 366 00c2 89F00109 		eor	r9, r9, #1
 367              	.LVL54:
 129:main.c        ****         }
 368              		.loc 1 129 0
 369 00c6 4846     		mov	r0, r9
 370 00c8 FFF7FEFF 		bl	BatteryLed_Write
 371              	.LVL55:
 372              	.L22:
 132:main.c        ****         if (!button && buttonState) {
 373              		.loc 1 132 0
 374 00cc FFF7FEFF 		bl	SW1_Read
 375              	.LVL56:
 133:main.c        ****             buttonState = 0;
 376              		.loc 1 133 0
 377 00d0 0346     		mov	r3, r0
 378 00d2 20B9     		cbnz	r0, .L46
 133:main.c        ****             buttonState = 0;
 379              		.loc 1 133 0 is_stmt 0 discriminator 1
 380 00d4 BBF1000F 		cmp	fp, #0
 381 00d8 03D1     		bne	.L47
 137:main.c        ****         }
 382              		.loc 1 137 0 is_stmt 1
 383 00da 0127     		movs	r7, #1
 384 00dc 03E0     		b	.L23
 385              	.L46:
 386 00de 0127     		movs	r7, #1
 387 00e0 01E0     		b	.L23
 388              	.L47:
 135:main.c        ****         } else {
 389              		.loc 1 135 0
 390 00e2 0027     		movs	r7, #0
 134:main.c        ****             buttonValue = 0; 
ARM GAS  C:\Users\TUOMAS~1\AppData\Local\Temp\ccqcCZQb.s 			page 15


 391              		.loc 1 134 0
 392 00e4 BB46     		mov	fp, r7
 393              	.LVL57:
 394              	.L23:
 140:main.c        ****         
 395              		.loc 1 140 0
 396 00e6 23B1     		cbz	r3, .L24
 140:main.c        ****         
 397              		.loc 1 140 0 is_stmt 0 discriminator 1
 398 00e8 BBF1000F 		cmp	fp, #0
 399 00ec 01D1     		bne	.L24
 140:main.c        ****         
 400              		.loc 1 140 0
 401 00ee 4FF0010B 		mov	fp, #1
 402              	.LVL58:
 403              	.L24:
 151:main.c        ****             case 1:
 404              		.loc 1 151 0 is_stmt 1
 405 00f2 0AF1FF33 		add	r3, r10, #-1
 406 00f6 032B     		cmp	r3, #3
 407 00f8 00F25281 		bhi	.L25
 408 00fc DFE803F0 		tbb	[pc, r3]
 409              	.L27:
 410 0100 02       		.byte	(.L26-.L27)/2
 411 0101 24       		.byte	(.L28-.L27)/2
 412 0102 45       		.byte	(.L29-.L27)/2
 413 0103 61       		.byte	(.L30-.L27)/2
 414              		.p2align 1
 415              	.L26:
 416              	.LBB3:
 153:main.c        ****                     ledState = !ledState;
 417              		.loc 1 153 0
 418 0104 B5F57A7F 		cmp	r5, #1000
 419 0108 05DB     		blt	.L31
 154:main.c        ****                     BatteryLed_Write(ledState);
 420              		.loc 1 154 0
 421 010a 89F00109 		eor	r9, r9, #1
 422              	.LVL59:
 155:main.c        ****                     ledTime = 0;
 423              		.loc 1 155 0
 424 010e 4846     		mov	r0, r9
 425              	.LVL60:
 426 0110 FFF7FEFF 		bl	BatteryLed_Write
 427              	.LVL61:
 156:main.c        ****                 }
 428              		.loc 1 156 0
 429 0114 0025     		movs	r5, #0
 430              	.LVL62:
 431              	.L31:
 159:main.c        ****                     reflectance_read(&sensors);
 432              		.loc 1 159 0
 433 0116 002F     		cmp	r7, #0
 434 0118 40F04E81 		bne	.L32
 160:main.c        ****                     white[0] = sensors.l3;
 435              		.loc 1 160 0
 436 011c 1AA8     		add	r0, sp, #104
 437 011e FFF7FEFF 		bl	reflectance_read
ARM GAS  C:\Users\TUOMAS~1\AppData\Local\Temp\ccqcCZQb.s 			page 16


 438              	.LVL63:
 161:main.c        ****                     white[1] = sensors.l1;
 439              		.loc 1 161 0
 440 0122 BDF86830 		ldrh	r3, [sp, #104]
 441 0126 1693     		str	r3, [sp, #88]
 162:main.c        ****                     white[2] = sensors.r1;
 442              		.loc 1 162 0
 443 0128 BDF86A30 		ldrh	r3, [sp, #106]
 444 012c 1793     		str	r3, [sp, #92]
 163:main.c        ****                     white[3] = sensors.r3;
 445              		.loc 1 163 0
 446 012e BDF86C30 		ldrh	r3, [sp, #108]
 447 0132 1893     		str	r3, [sp, #96]
 164:main.c        ****                     
 448              		.loc 1 164 0
 449 0134 BDF86E30 		ldrh	r3, [sp, #110]
 450 0138 1993     		str	r3, [sp, #100]
 166:main.c        ****                     
 451              		.loc 1 166 0
 452 013a 6421     		movs	r1, #100
 453 013c 0A20     		movs	r0, #10
 454 013e FFF7FEFF 		bl	Beep
 455              	.LVL64:
 168:main.c        ****                 }
 456              		.loc 1 168 0
 457 0142 0AF1010A 		add	r10, r10, #1
 458              	.LVL65:
 459 0146 37E1     		b	.L32
 460              	.LVL66:
 461              	.L28:
 177:main.c        ****                     ledState = !ledState;
 462              		.loc 1 177 0
 463 0148 002D     		cmp	r5, #0
 464 014a 05DB     		blt	.L33
 178:main.c        ****                     BatteryLed_Write(ledState);
 465              		.loc 1 178 0
 466 014c 89F00109 		eor	r9, r9, #1
 467              	.LVL67:
 179:main.c        ****                     ledTime = 0;
 468              		.loc 1 179 0
 469 0150 4846     		mov	r0, r9
 470              	.LVL68:
 471 0152 FFF7FEFF 		bl	BatteryLed_Write
 472              	.LVL69:
 180:main.c        ****                 }
 473              		.loc 1 180 0
 474 0156 0025     		movs	r5, #0
 475              	.LVL70:
 476              	.L33:
 183:main.c        ****                     reflectance_read(&sensors);
 477              		.loc 1 183 0
 478 0158 002F     		cmp	r7, #0
 479 015a 40F02D81 		bne	.L32
 184:main.c        ****                     black[0] = sensors.l3;
 480              		.loc 1 184 0
 481 015e 1AA8     		add	r0, sp, #104
 482 0160 FFF7FEFF 		bl	reflectance_read
ARM GAS  C:\Users\TUOMAS~1\AppData\Local\Temp\ccqcCZQb.s 			page 17


 483              	.LVL71:
 185:main.c        ****                     black[1] = sensors.l1;
 484              		.loc 1 185 0
 485 0164 BDF86830 		ldrh	r3, [sp, #104]
 486 0168 1293     		str	r3, [sp, #72]
 186:main.c        ****                     black[2] = sensors.r1;
 487              		.loc 1 186 0
 488 016a BDF86A30 		ldrh	r3, [sp, #106]
 489 016e 1393     		str	r3, [sp, #76]
 187:main.c        ****                     black[3] = sensors.r3;
 490              		.loc 1 187 0
 491 0170 BDF86C30 		ldrh	r3, [sp, #108]
 492 0174 1493     		str	r3, [sp, #80]
 188:main.c        ****                     
 493              		.loc 1 188 0
 494 0176 BDF86E30 		ldrh	r3, [sp, #110]
 495 017a 1593     		str	r3, [sp, #84]
 190:main.c        ****                     
 496              		.loc 1 190 0
 497 017c C821     		movs	r1, #200
 498 017e 0A20     		movs	r0, #10
 499 0180 FFF7FEFF 		bl	Beep
 500              	.LVL72:
 192:main.c        ****                 }
 501              		.loc 1 192 0
 502 0184 0AF1010A 		add	r10, r10, #1
 503              	.LVL73:
 504 0188 16E1     		b	.L32
 505              	.LVL74:
 506              	.L29:
 198:main.c        ****                 printf("%d - %d - %d - %d \n", black[0], black[1], black[2], black[3]);
 507              		.loc 1 198 0
 508 018a 4F4E     		ldr	r6, .L66+20
 509 018c 199B     		ldr	r3, [sp, #100]
 510 018e 0093     		str	r3, [sp]
 511 0190 189B     		ldr	r3, [sp, #96]
 512 0192 179A     		ldr	r2, [sp, #92]
 513 0194 1699     		ldr	r1, [sp, #88]
 514 0196 3046     		mov	r0, r6
 515              	.LVL75:
 516 0198 FFF7FEFF 		bl	printf
 517              	.LVL76:
 199:main.c        ****                 
 518              		.loc 1 199 0
 519 019c 159B     		ldr	r3, [sp, #84]
 520 019e 0093     		str	r3, [sp]
 521 01a0 149B     		ldr	r3, [sp, #80]
 522 01a2 139A     		ldr	r2, [sp, #76]
 523 01a4 1299     		ldr	r1, [sp, #72]
 524 01a6 3046     		mov	r0, r6
 525 01a8 FFF7FEFF 		bl	printf
 526              	.LVL77:
 201:main.c        ****                 Beep(10, 100);
 527              		.loc 1 201 0
 528 01ac C821     		movs	r1, #200
 529 01ae 1420     		movs	r0, #20
 530 01b0 FFF7FEFF 		bl	Beep
ARM GAS  C:\Users\TUOMAS~1\AppData\Local\Temp\ccqcCZQb.s 			page 18


 531              	.LVL78:
 202:main.c        ****                 
 532              		.loc 1 202 0
 533 01b4 6421     		movs	r1, #100
 534 01b6 0A20     		movs	r0, #10
 535 01b8 FFF7FEFF 		bl	Beep
 536              	.LVL79:
 204:main.c        ****                 break;
 537              		.loc 1 204 0
 538 01bc 0AF1010A 		add	r10, r10, #1
 539              	.LVL80:
 205:main.c        ****                 
 540              		.loc 1 205 0
 541 01c0 FAE0     		b	.L32
 542              	.LVL81:
 543              	.L30:
 208:main.c        ****                 status[0] = (float)(sensors.l3 - white[0]) / (float)(black[0] - white[0]);
 544              		.loc 1 208 0
 545 01c2 1AA8     		add	r0, sp, #104
 546              	.LVL82:
 547 01c4 FFF7FEFF 		bl	reflectance_read
 548              	.LVL83:
 209:main.c        ****                 status[1] = (float)(sensors.l1 - white[1]) / (float)(black[1] - white[1]);
 549              		.loc 1 209 0
 550 01c8 BDF86800 		ldrh	r0, [sp, #104]
 551 01cc 169E     		ldr	r6, [sp, #88]
 552              	.LVL84:
 553 01ce 801B     		subs	r0, r0, r6
 554 01d0 FFF7FEFF 		bl	__aeabi_i2f
 555              	.LVL85:
 556 01d4 0590     		str	r0, [sp, #20]	@ float
 557 01d6 1298     		ldr	r0, [sp, #72]
 558 01d8 801B     		subs	r0, r0, r6
 559 01da FFF7FEFF 		bl	__aeabi_i2f
 560              	.LVL86:
 561 01de 0146     		mov	r1, r0
 562 01e0 0598     		ldr	r0, [sp, #20]	@ float
 563 01e2 FFF7FEFF 		bl	__aeabi_fdiv
 564              	.LVL87:
 565 01e6 0890     		str	r0, [sp, #32]	@ float
 210:main.c        ****                 status[2] = (float)(sensors.r1 - white[2]) / (float)(black[2] - white[2]);
 566              		.loc 1 210 0
 567 01e8 BDF86A00 		ldrh	r0, [sp, #106]
 568 01ec 179E     		ldr	r6, [sp, #92]
 569 01ee 801B     		subs	r0, r0, r6
 570 01f0 FFF7FEFF 		bl	__aeabi_i2f
 571              	.LVL88:
 572 01f4 0590     		str	r0, [sp, #20]	@ float
 573 01f6 1398     		ldr	r0, [sp, #76]
 574 01f8 801B     		subs	r0, r0, r6
 575 01fa FFF7FEFF 		bl	__aeabi_i2f
 576              	.LVL89:
 577 01fe 0146     		mov	r1, r0
 578 0200 0598     		ldr	r0, [sp, #20]	@ float
 579 0202 FFF7FEFF 		bl	__aeabi_fdiv
 580              	.LVL90:
 581 0206 0D90     		str	r0, [sp, #52]	@ float
ARM GAS  C:\Users\TUOMAS~1\AppData\Local\Temp\ccqcCZQb.s 			page 19


 211:main.c        ****                 status[3] = (float)(sensors.r3 - white[3]) / (float)(black[3] - white[3]);
 582              		.loc 1 211 0
 583 0208 BDF86C00 		ldrh	r0, [sp, #108]
 584 020c 189E     		ldr	r6, [sp, #96]
 585 020e 801B     		subs	r0, r0, r6
 586 0210 FFF7FEFF 		bl	__aeabi_i2f
 587              	.LVL91:
 588 0214 0590     		str	r0, [sp, #20]	@ float
 589 0216 1498     		ldr	r0, [sp, #80]
 590 0218 801B     		subs	r0, r0, r6
 591 021a FFF7FEFF 		bl	__aeabi_i2f
 592              	.LVL92:
 593 021e 0146     		mov	r1, r0
 594 0220 0598     		ldr	r0, [sp, #20]	@ float
 595 0222 FFF7FEFF 		bl	__aeabi_fdiv
 596              	.LVL93:
 597 0226 0B90     		str	r0, [sp, #44]	@ float
 212:main.c        ****                 
 598              		.loc 1 212 0
 599 0228 BDF86E00 		ldrh	r0, [sp, #110]
 600 022c 199E     		ldr	r6, [sp, #100]
 601 022e 801B     		subs	r0, r0, r6
 602 0230 FFF7FEFF 		bl	__aeabi_i2f
 603              	.LVL94:
 604 0234 0590     		str	r0, [sp, #20]	@ float
 605 0236 1598     		ldr	r0, [sp, #84]
 606 0238 801B     		subs	r0, r0, r6
 607 023a FFF7FEFF 		bl	__aeabi_i2f
 608              	.LVL95:
 609 023e 0146     		mov	r1, r0
 610 0240 0598     		ldr	r0, [sp, #20]	@ float
 611 0242 FFF7FEFF 		bl	__aeabi_fdiv
 612              	.LVL96:
 613 0246 0C90     		str	r0, [sp, #48]	@ float
 614              	.LVL97:
 220:main.c        ****                     right = 1;
 615              		.loc 1 220 0
 616 0248 2049     		ldr	r1, .L66+24
 617 024a 0D98     		ldr	r0, [sp, #52]	@ float
 618 024c FFF7FEFF 		bl	__aeabi_fcmpgt
 619              	.LVL98:
 620 0250 10B9     		cbnz	r0, .L49
 217:main.c        ****                 
 621              		.loc 1 217 0
 622 0252 0023     		movs	r3, #0
 623 0254 0593     		str	r3, [sp, #20]
 624 0256 01E0     		b	.L34
 625              	.L49:
 221:main.c        ****                 }
 626              		.loc 1 221 0
 627 0258 0123     		movs	r3, #1
 628 025a 0593     		str	r3, [sp, #20]
 629              	.L34:
 630              	.LVL99:
 224:main.c        ****                     right = 2;
 631              		.loc 1 224 0
 632 025c 1B49     		ldr	r1, .L66+24
ARM GAS  C:\Users\TUOMAS~1\AppData\Local\Temp\ccqcCZQb.s 			page 20


 633 025e 0898     		ldr	r0, [sp, #32]	@ float
 634 0260 FFF7FEFF 		bl	__aeabi_fcmpgt
 635              	.LVL100:
 636 0264 08B1     		cbz	r0, .L35
 225:main.c        ****                 }
 637              		.loc 1 225 0
 638 0266 0223     		movs	r3, #2
 639 0268 0593     		str	r3, [sp, #20]
 640              	.LVL101:
 641              	.L35:
 228:main.c        ****                     left = 1;
 642              		.loc 1 228 0
 643 026a 1849     		ldr	r1, .L66+24
 644 026c 0B98     		ldr	r0, [sp, #44]	@ float
 645 026e FFF7FEFF 		bl	__aeabi_fcmpgt
 646              	.LVL102:
 647 0272 08B9     		cbnz	r0, .L51
 216:main.c        ****                 int right = 0;
 648              		.loc 1 216 0
 649 0274 0026     		movs	r6, #0
 650 0276 00E0     		b	.L36
 651              	.L51:
 229:main.c        ****                 }
 652              		.loc 1 229 0
 653 0278 0126     		movs	r6, #1
 654              	.L36:
 655              	.LVL103:
 232:main.c        ****                     left = 2;
 656              		.loc 1 232 0
 657 027a 1449     		ldr	r1, .L66+24
 658 027c 0C98     		ldr	r0, [sp, #48]	@ float
 659 027e FFF7FEFF 		bl	__aeabi_fcmpgt
 660              	.LVL104:
 661 0282 00B1     		cbz	r0, .L37
 233:main.c        ****                 }
 662              		.loc 1 233 0
 663 0284 0226     		movs	r6, #2
 664              	.LVL105:
 665              	.L37:
 238:main.c        ****                     left = lastLeft;
 666              		.loc 1 238 0
 667 0286 B8F1020F 		cmp	r8, #2
 668 028a 02D0     		beq	.L38
 238:main.c        ****                     left = lastLeft;
 669              		.loc 1 238 0 is_stmt 0 discriminator 2
 670 028c 049B     		ldr	r3, [sp, #16]
 671 028e 022B     		cmp	r3, #2
 672 0290 05D1     		bne	.L39
 673              	.L38:
 238:main.c        ****                     left = lastLeft;
 674              		.loc 1 238 0 discriminator 3
 675 0292 26B9     		cbnz	r6, .L39
 238:main.c        ****                     left = lastLeft;
 676              		.loc 1 238 0 discriminator 4
 677 0294 059B     		ldr	r3, [sp, #20]
 678 0296 13B9     		cbnz	r3, .L39
 240:main.c        ****                 }
ARM GAS  C:\Users\TUOMAS~1\AppData\Local\Temp\ccqcCZQb.s 			page 21


 679              		.loc 1 240 0 is_stmt 1
 680 0298 049B     		ldr	r3, [sp, #16]
 681 029a 0593     		str	r3, [sp, #20]
 682              	.LVL106:
 239:main.c        ****                     right = lastRight;
 683              		.loc 1 239 0
 684 029c 4646     		mov	r6, r8
 685              	.LVL107:
 686              	.L39:
 243:main.c        ****                     left = 1;
 687              		.loc 1 243 0
 688 029e 26B9     		cbnz	r6, .L54
 243:main.c        ****                     left = 1;
 689              		.loc 1 243 0 is_stmt 0 discriminator 1
 690 02a0 059B     		ldr	r3, [sp, #20]
 691 02a2 ABB1     		cbz	r3, .L55
 243:main.c        ****                     left = 1;
 692              		.loc 1 243 0
 693 02a4 0493     		str	r3, [sp, #16]
 694              	.LVL108:
 695 02a6 B046     		mov	r8, r6
 696              	.LVL109:
 697 02a8 15E0     		b	.L40
 698              	.LVL110:
 699              	.L54:
 700 02aa 059B     		ldr	r3, [sp, #20]
 701 02ac 0493     		str	r3, [sp, #16]
 702              	.LVL111:
 703 02ae B046     		mov	r8, r6
 704              	.LVL112:
 705 02b0 11E0     		b	.L40
 706              	.L67:
 707 02b2 00BF     		.align	2
 708              	.L66:
 709 02b4 00000000 		.word	sensor_isr_handler
 710 02b8 00000000 		.word	.LC0
 711 02bc 00007F43 		.word	1132396544
 712 02c0 0046C323 		.word	600000000
 713 02c4 08000000 		.word	.LC1
 714 02c8 20000000 		.word	.LC2
 715 02cc CDCC4C3E 		.word	1045220557
 716              	.LVL113:
 717              	.L55:
 245:main.c        ****                 }
 718              		.loc 1 245 0 is_stmt 1
 719 02d0 0123     		movs	r3, #1
 720              	.LVL114:
 721 02d2 0493     		str	r3, [sp, #16]
 722              	.LVL115:
 244:main.c        ****                     right = 1;
 723              		.loc 1 244 0
 724 02d4 9846     		mov	r8, r3
 725              	.LVL116:
 726              	.L40:
 248:main.c        ****                     left = 1;
 727              		.loc 1 248 0
 728 02d6 B8F1020F 		cmp	r8, #2
ARM GAS  C:\Users\TUOMAS~1\AppData\Local\Temp\ccqcCZQb.s 			page 22


 729 02da 05D1     		bne	.L41
 248:main.c        ****                     left = 1;
 730              		.loc 1 248 0 is_stmt 0 discriminator 1
 731 02dc 049B     		ldr	r3, [sp, #16]
 732 02de 022B     		cmp	r3, #2
 733 02e0 02D1     		bne	.L41
 250:main.c        ****                 }
 734              		.loc 1 250 0 is_stmt 1
 735 02e2 0123     		movs	r3, #1
 736 02e4 0493     		str	r3, [sp, #16]
 737              	.LVL117:
 249:main.c        ****                     right = 1;
 738              		.loc 1 249 0
 739 02e6 9846     		mov	r8, r3
 740              	.LVL118:
 741              	.L41:
 262:main.c        ****                 rightControl = getPIDValue(rightControl, (left == 0 || (right == left) ? 1 : 0), &i
 742              		.loc 1 262 0
 743 02e8 049B     		ldr	r3, [sp, #16]
 744 02ea 1BB1     		cbz	r3, .L57
 262:main.c        ****                 rightControl = getPIDValue(rightControl, (left == 0 || (right == left) ? 1 : 0), &i
 745              		.loc 1 262 0 is_stmt 0 discriminator 2
 746 02ec 9845     		cmp	r8, r3
 747 02ee 03D1     		bne	.L58
 262:main.c        ****                 rightControl = getPIDValue(rightControl, (left == 0 || (right == left) ? 1 : 0), &i
 748              		.loc 1 262 0
 749 02f0 0120     		movs	r0, #1
 750 02f2 02E0     		b	.L42
 751              	.L57:
 752 02f4 0120     		movs	r0, #1
 753 02f6 00E0     		b	.L42
 754              	.L58:
 755 02f8 0020     		movs	r0, #0
 756              	.L42:
 262:main.c        ****                 rightControl = getPIDValue(rightControl, (left == 0 || (right == left) ? 1 : 0), &i
 757              		.loc 1 262 0 discriminator 6
 758 02fa FFF7FEFF 		bl	__aeabi_i2f
 759              	.LVL119:
 760 02fe 10AB     		add	r3, sp, #64
 761 0300 0EAA     		add	r2, sp, #56
 762 0302 0146     		mov	r1, r0
 763 0304 0698     		ldr	r0, [sp, #24]	@ float
 764 0306 FFF7FEFF 		bl	getPIDValue
 765              	.LVL120:
 766 030a 0690     		str	r0, [sp, #24]	@ float
 767              	.LVL121:
 263:main.c        ****                 
 768              		.loc 1 263 0 is_stmt 1 discriminator 6
 769 030c B8F1000F 		cmp	r8, #0
 770 0310 04D0     		beq	.L59
 263:main.c        ****                 
 771              		.loc 1 263 0 is_stmt 0 discriminator 2
 772 0312 049B     		ldr	r3, [sp, #16]
 773 0314 9845     		cmp	r8, r3
 774 0316 03D1     		bne	.L60
 263:main.c        ****                 
 775              		.loc 1 263 0
ARM GAS  C:\Users\TUOMAS~1\AppData\Local\Temp\ccqcCZQb.s 			page 23


 776 0318 0120     		movs	r0, #1
 777              	.LVL122:
 778 031a 02E0     		b	.L43
 779              	.LVL123:
 780              	.L59:
 781 031c 0120     		movs	r0, #1
 782              	.LVL124:
 783 031e 00E0     		b	.L43
 784              	.LVL125:
 785              	.L60:
 786 0320 0020     		movs	r0, #0
 787              	.LVL126:
 788              	.L43:
 263:main.c        ****                 
 789              		.loc 1 263 0 discriminator 6
 790 0322 FFF7FEFF 		bl	__aeabi_i2f
 791              	.LVL127:
 792 0326 11AB     		add	r3, sp, #68
 793 0328 0FAA     		add	r2, sp, #60
 794 032a 0146     		mov	r1, r0
 795 032c 0798     		ldr	r0, [sp, #28]	@ float
 796 032e FFF7FEFF 		bl	getPIDValue
 797              	.LVL128:
 798 0332 0790     		str	r0, [sp, #28]	@ float
 799              	.LVL129:
 265:main.c        ****                 rightSpeed = rightControl * speed;
 800              		.loc 1 265 0 is_stmt 1 discriminator 6
 801 0334 0699     		ldr	r1, [sp, #24]	@ float
 802 0336 0A9E     		ldr	r6, [sp, #40]	@ float
 803 0338 3046     		mov	r0, r6
 804              	.LVL130:
 805 033a FFF7FEFF 		bl	__aeabi_fmul
 806              	.LVL131:
 807 033e 0590     		str	r0, [sp, #20]	@ float
 808              	.LVL132:
 266:main.c        ****                
 809              		.loc 1 266 0 discriminator 6
 810 0340 0799     		ldr	r1, [sp, #28]	@ float
 811 0342 3046     		mov	r0, r6
 812              	.LVL133:
 813 0344 FFF7FEFF 		bl	__aeabi_fmul
 814              	.LVL134:
 815 0348 0646     		mov	r6, r0
 816              	.LVL135:
 268:main.c        ****                     rightSpeed = 0;
 817              		.loc 1 268 0 discriminator 6
 818 034a B8F1020F 		cmp	r8, #2
 819 034e 02D1     		bne	.L44
 270:main.c        ****                 }
 820              		.loc 1 270 0
 821 0350 0A9B     		ldr	r3, [sp, #40]	@ float
 822 0352 0593     		str	r3, [sp, #20]	@ float
 823              	.LVL136:
 269:main.c        ****                     leftSpeed = speed;
 824              		.loc 1 269 0
 825 0354 0026     		movs	r6, #0
 826              	.L44:
ARM GAS  C:\Users\TUOMAS~1\AppData\Local\Temp\ccqcCZQb.s 			page 24


 827              	.LVL137:
 273:main.c        ****                     leftSpeed = 0;
 828              		.loc 1 273 0
 829 0356 049B     		ldr	r3, [sp, #16]
 830 0358 022B     		cmp	r3, #2
 831 035a 02D1     		bne	.L45
 275:main.c        ****                 }
 832              		.loc 1 275 0
 833 035c 0A9E     		ldr	r6, [sp, #40]	@ float
 834              	.LVL138:
 274:main.c        ****                     rightSpeed = speed;
 835              		.loc 1 274 0
 836 035e 0023     		movs	r3, #0
 837 0360 0593     		str	r3, [sp, #20]	@ float
 838              	.LVL139:
 839              	.L45:
 294:main.c        ****                 
 840              		.loc 1 294 0
 841 0362 0598     		ldr	r0, [sp, #20]	@ float
 842 0364 FFF7FEFF 		bl	__aeabi_f2d
 843              	.LVL140:
 844 0368 CDE90801 		strd	r0, [sp, #32]
 845 036c 3046     		mov	r0, r6
 846 036e FFF7FEFF 		bl	__aeabi_f2d
 847              	.LVL141:
 848 0372 CDE90001 		strd	r0, [sp]
 849 0376 DDE90823 		ldrd	r2, [sp, #32]
 850 037a 1248     		ldr	r0, .L68
 851 037c FFF7FEFF 		bl	printf
 852              	.LVL142:
 301:main.c        ****                 
 853              		.loc 1 301 0
 854 0380 3046     		mov	r0, r6
 855 0382 FFF7FEFF 		bl	__aeabi_f2uiz
 856              	.LVL143:
 857 0386 C6B2     		uxtb	r6, r0
 858              	.LVL144:
 859 0388 0598     		ldr	r0, [sp, #20]	@ float
 860 038a FFF7FEFF 		bl	__aeabi_f2uiz
 861              	.LVL145:
 862 038e 0A22     		movs	r2, #10
 863 0390 3146     		mov	r1, r6
 864 0392 C0B2     		uxtb	r0, r0
 865 0394 FFF7FEFF 		bl	motor_turn
 866              	.LVL146:
 303:main.c        ****                 if (stopCount > 1) state++;
 867              		.loc 1 303 0
 868 0398 77B9     		cbnz	r7, .L32
 303:main.c        ****                 if (stopCount > 1) state++;
 869              		.loc 1 303 0 is_stmt 0 discriminator 1
 870 039a 0AF1010A 		add	r10, r10, #1
 871              	.LVL147:
 872 039e 0BE0     		b	.L32
 873              	.LVL148:
 874              	.L25:
 309:main.c        ****                 if (buttonValue == 0) {
 875              		.loc 1 309 0 is_stmt 1
ARM GAS  C:\Users\TUOMAS~1\AppData\Local\Temp\ccqcCZQb.s 			page 25


 876 03a0 0A21     		movs	r1, #10
 877 03a2 0020     		movs	r0, #0
 878              	.LVL149:
 879 03a4 FFF7FEFF 		bl	motor_forward
 880              	.LVL150:
 310:main.c        ****                     speed += 25;
 881              		.loc 1 310 0
 882 03a8 37B9     		cbnz	r7, .L32
 311:main.c        ****                     state--;
 883              		.loc 1 311 0
 884 03aa 0749     		ldr	r1, .L68+4
 885 03ac 0A98     		ldr	r0, [sp, #40]	@ float
 886 03ae FFF7FEFF 		bl	__aeabi_fadd
 887              	.LVL151:
 888 03b2 0A90     		str	r0, [sp, #40]	@ float
 889              	.LVL152:
 312:main.c        ****                 }
 890              		.loc 1 312 0
 891 03b4 0AF1FF3A 		add	r10, r10, #-1
 892              	.LVL153:
 893              	.L32:
 894              	.LBE3:
 323:main.c        ****         loopTime++;
 895              		.loc 1 323 0
 896 03b8 0A20     		movs	r0, #10
 897 03ba FFF7FEFF 		bl	CyDelay
 898              	.LVL154:
 324:main.c        ****     }
 899              		.loc 1 324 0
 900 03be 0134     		adds	r4, r4, #1
 901              	.LVL155:
 902 03c0 56E6     		b	.L15
 903              	.L69:
 904 03c2 00BF     		.align	2
 905              	.L68:
 906 03c4 34000000 		.word	.LC3
 907 03c8 0000C841 		.word	1103626240
 908              	.LBE2:
 909              		.cfi_endproc
 910              	.LFE64:
 911              		.size	main, .-main
 912              		.section	.text._write,"ax",%progbits
 913              		.align	2
 914              		.global	_write
 915              		.thumb
 916              		.thumb_func
 917              		.type	_write, %function
 918              	_write:
 919              	.LFB67:
 360:main.c        **** 
 361:main.c        **** /*//ultra sonic sensor//
 362:main.c        **** int main()
 363:main.c        **** {
 364:main.c        ****     CyGlobalIntEnable; 
 365:main.c        ****     UART_1_Start();
 366:main.c        ****     Ultra_Start();                          // Ultra Sonic Start function
 367:main.c        ****     while(1) {
ARM GAS  C:\Users\TUOMAS~1\AppData\Local\Temp\ccqcCZQb.s 			page 26


 368:main.c        ****         //If you want to print out the value  
 369:main.c        ****         printf("distance = %5.0f\r\n", Ultra_GetDistance());
 370:main.c        ****         CyDelay(1000);
 371:main.c        ****     }
 372:main.c        **** }   
 373:main.c        **** //*/
 374:main.c        **** 
 375:main.c        **** 
 376:main.c        **** /*//nunchuk//
 377:main.c        **** int main()
 378:main.c        **** {
 379:main.c        ****     CyGlobalIntEnable; 
 380:main.c        ****     UART_1_Start();
 381:main.c        ****   
 382:main.c        ****     nunchuk_start();
 383:main.c        ****     nunchuk_init();
 384:main.c        ****     
 385:main.c        ****     for(;;)
 386:main.c        ****     {    
 387:main.c        ****         nunchuk_read();
 388:main.c        ****     }
 389:main.c        **** }   
 390:main.c        **** //*/
 391:main.c        **** 
 392:main.c        **** 
 393:main.c        **** /*//IR receiver//
 394:main.c        **** int main()
 395:main.c        **** {
 396:main.c        ****     CyGlobalIntEnable; 
 397:main.c        ****     UART_1_Start();
 398:main.c        ****     
 399:main.c        ****     unsigned int IR_val; 
 400:main.c        ****     
 401:main.c        ****     for(;;)
 402:main.c        ****     {
 403:main.c        ****        IR_val = get_IR();
 404:main.c        ****        printf("%x\r\n\n",IR_val);
 405:main.c        ****     }    
 406:main.c        ****  }   
 407:main.c        **** //*/
 408:main.c        **** 
 409:main.c        **** 
 410:main.c        **** /*//Ambient light sensor//
 411:main.c        **** int main()
 412:main.c        **** {
 413:main.c        ****     CyGlobalIntEnable; 
 414:main.c        ****     UART_1_Start();
 415:main.c        ****     
 416:main.c        ****     I2C_Start();
 417:main.c        ****     
 418:main.c        ****     I2C_write(0x29,0x80,0x00);          // set to power down
 419:main.c        ****     I2C_write(0x29,0x80,0x03);          // set to power on
 420:main.c        ****     
 421:main.c        ****     for(;;)
 422:main.c        ****     {    
 423:main.c        ****         uint8 Data0Low,Data0High,Data1Low,Data1High;
 424:main.c        ****         Data0Low = I2C_read(0x29,CH0_L);
ARM GAS  C:\Users\TUOMAS~1\AppData\Local\Temp\ccqcCZQb.s 			page 27


 425:main.c        ****         Data0High = I2C_read(0x29,CH0_H);
 426:main.c        ****         Data1Low = I2C_read(0x29,CH1_L);
 427:main.c        ****         Data1High = I2C_read(0x29,CH1_H);
 428:main.c        ****         
 429:main.c        ****         uint8 CH0, CH1;
 430:main.c        ****         CH0 = convert_raw(Data0Low,Data0High);      // combine Data0
 431:main.c        ****         CH1 = convert_raw(Data1Low,Data1High);      // combine Data1
 432:main.c        **** 
 433:main.c        ****         double Ch0 = CH0;
 434:main.c        ****         double Ch1 = CH1;
 435:main.c        ****         
 436:main.c        ****         double data = 0;
 437:main.c        ****         data = getLux(Ch0,Ch1);
 438:main.c        ****         
 439:main.c        ****         // If you want to print out data
 440:main.c        ****         //printf("%lf\r\n",data);    
 441:main.c        ****     }    
 442:main.c        ****  }   
 443:main.c        **** //*/
 444:main.c        **** 
 445:main.c        **** 
 446:main.c        **** /*//accelerometer//
 447:main.c        **** int main()
 448:main.c        **** {
 449:main.c        ****     CyGlobalIntEnable; 
 450:main.c        ****     UART_1_Start();
 451:main.c        ****   
 452:main.c        ****     I2C_Start();
 453:main.c        ****   
 454:main.c        ****     uint8 X_L_A, X_H_A, Y_L_A, Y_H_A, Z_L_A, Z_H_A;
 455:main.c        ****     int16 X_AXIS_A, Y_AXIS_A, Z_AXIS_A;
 456:main.c        ****     
 457:main.c        ****     I2C_write(ACCEL_MAG_ADDR, ACCEL_CTRL1_REG, 0x37);           // set accelerometer & magnetometer
 458:main.c        ****     I2C_write(ACCEL_MAG_ADDR, ACCEL_CTRL7_REG, 0x22);
 459:main.c        ****     
 460:main.c        ****     
 461:main.c        ****     for(;;)
 462:main.c        ****     {
 463:main.c        ****         //print out accelerometer output
 464:main.c        ****         X_L_A = I2C_read(ACCEL_MAG_ADDR, OUT_X_L_A);
 465:main.c        ****         X_H_A = I2C_read(ACCEL_MAG_ADDR, OUT_X_H_A);
 466:main.c        ****         X_AXIS_A = convert_raw(X_L_A, X_H_A);
 467:main.c        ****         
 468:main.c        ****         Y_L_A = I2C_read(ACCEL_MAG_ADDR, OUT_Y_L_A);
 469:main.c        ****         Y_H_A = I2C_read(ACCEL_MAG_ADDR, OUT_Y_H_A);
 470:main.c        ****         Y_AXIS_A = convert_raw(Y_L_A, Y_H_A);
 471:main.c        ****         
 472:main.c        ****         Z_L_A = I2C_read(ACCEL_MAG_ADDR, OUT_Z_L_A);
 473:main.c        ****         Z_H_A = I2C_read(ACCEL_MAG_ADDR, OUT_Z_H_A);
 474:main.c        ****         Z_AXIS_A = convert_raw(Z_L_A, Z_H_A);
 475:main.c        ****         
 476:main.c        ****         printf("ACCEL: %d %d %d %d %d %d \r\n", X_L_A, X_H_A, Y_L_A, Y_H_A, Z_L_A, Z_H_A);
 477:main.c        ****         value_convert_accel(X_AXIS_A, Y_AXIS_A, Z_AXIS_A);
 478:main.c        ****         printf("\n");
 479:main.c        ****         
 480:main.c        ****         CyDelay(50);
 481:main.c        ****     }
ARM GAS  C:\Users\TUOMAS~1\AppData\Local\Temp\ccqcCZQb.s 			page 28


 482:main.c        **** }   
 483:main.c        **** //*/
 484:main.c        **** 
 485:main.c        **** 
 486:main.c        **** /*//reflectance//
 487:main.c        **** int main()
 488:main.c        **** {
 489:main.c        ****     struct sensors_ ref;
 490:main.c        ****     struct sensors_ dig;
 491:main.c        ****     CyGlobalIntEnable; 
 492:main.c        ****     UART_1_Start();
 493:main.c        ****   
 494:main.c        ****     sensor_isr_StartEx(sensor_isr_handler);
 495:main.c        ****     
 496:main.c        ****     reflectance_start();
 497:main.c        **** 
 498:main.c        ****     IR_led_Write(1);
 499:main.c        ****     for(;;)
 500:main.c        ****     {
 501:main.c        ****         reflectance_read(&ref);
 502:main.c        ****         printf("%d %d %d %d \r\n", ref.l3, ref.l1, ref.r1, ref.r3);       //print out each period o
 503:main.c        ****         reflectance_digital(&dig);      //print out 0 or 1 according to results of reflectance peri
 504:main.c        ****         printf("%d %d %d %d \r\n", dig.l3, dig.l1, dig.r1, dig.r3);        //print out 0 or 1 accor
 505:main.c        ****         
 506:main.c        ****         CyDelay(500);
 507:main.c        ****     }
 508:main.c        **** }   
 509:main.c        **** //*/
 510:main.c        **** 
 511:main.c        ****  /* //motor//
 512:main.c        **** int main()
 513:main.c        **** {
 514:main.c        ****     CyGlobalIntEnable; 
 515:main.c        ****     UART_1_Start();
 516:main.c        **** 
 517:main.c        ****     motor_start();              // motor start
 518:main.c        **** 
 519:main.c        ****     motor_forward(100,2000);     // moving forward
 520:main.c        ****     motor_turn(200,50,2000);     // turn
 521:main.c        ****     motor_turn(50,200,2000);     // turn
 522:main.c        ****     motor_backward(100,2000);    // movinb backward
 523:main.c        ****        
 524:main.c        ****     motor_stop();               // motor stop
 525:main.c        ****     
 526:main.c        ****     for(;;)
 527:main.c        ****     {
 528:main.c        **** 
 529:main.c        ****     }
 530:main.c        **** }
 531:main.c        **** //*/
 532:main.c        ****     
 533:main.c        **** 
 534:main.c        **** /*//gyroscope//
 535:main.c        **** int main()
 536:main.c        **** {
 537:main.c        ****     CyGlobalIntEnable; 
 538:main.c        ****     UART_1_Start();
ARM GAS  C:\Users\TUOMAS~1\AppData\Local\Temp\ccqcCZQb.s 			page 29


 539:main.c        ****   
 540:main.c        ****     I2C_Start();
 541:main.c        ****   
 542:main.c        ****     uint8 X_L_G, X_H_G, Y_L_G, Y_H_G, Z_L_G, Z_H_G;
 543:main.c        ****     int16 X_AXIS_G, Y_AXIS_G, Z_AXIS_G;
 544:main.c        ****     
 545:main.c        ****     I2C_write(GYRO_ADDR, GYRO_CTRL1_REG, 0x0F);             // set gyroscope into active mode
 546:main.c        ****     I2C_write(GYRO_ADDR, GYRO_CTRL4_REG, 0x30);             // set full scale selection to 2000dps 
 547:main.c        ****     
 548:main.c        ****     for(;;)
 549:main.c        ****     {
 550:main.c        ****         //print out gyroscope output
 551:main.c        ****         X_L_G = I2C_read(GYRO_ADDR, OUT_X_AXIS_L);
 552:main.c        ****         X_H_G = I2C_read(GYRO_ADDR, OUT_X_AXIS_H);
 553:main.c        ****         X_AXIS_G = convert_raw(X_H_G, X_L_G);
 554:main.c        ****         
 555:main.c        ****         
 556:main.c        ****         Y_L_G = I2C_read(GYRO_ADDR, OUT_Y_AXIS_L);
 557:main.c        ****         Y_H_G = I2C_read(GYRO_ADDR, OUT_Y_AXIS_H);
 558:main.c        ****         Y_AXIS_G = convert_raw(Y_H_G, Y_L_G);
 559:main.c        ****         
 560:main.c        ****         
 561:main.c        ****         Z_L_G = I2C_read(GYRO_ADDR, OUT_Z_AXIS_L);
 562:main.c        ****         Z_H_G = I2C_read(GYRO_ADDR, OUT_Z_AXIS_H);
 563:main.c        ****         Z_AXIS_G = convert_raw(Z_H_G, Z_L_G);
 564:main.c        ****      
 565:main.c        ****         // If you want to print value
 566:main.c        ****         printf("%d %d %d \r\n", X_AXIS_G, Y_AXIS_G, Z_AXIS_G);
 567:main.c        ****         CyDelay(50);
 568:main.c        ****     }
 569:main.c        **** }   
 570:main.c        **** //*/
 571:main.c        **** 
 572:main.c        **** 
 573:main.c        **** /*//magnetometer//
 574:main.c        **** int main()
 575:main.c        **** {
 576:main.c        ****     CyGlobalIntEnable; 
 577:main.c        ****     UART_1_Start();
 578:main.c        ****   
 579:main.c        ****     I2C_Start();
 580:main.c        ****    
 581:main.c        ****     uint8 X_L_M, X_H_M, Y_L_M, Y_H_M, Z_L_M, Z_H_M;
 582:main.c        ****     int16 X_AXIS, Y_AXIS, Z_AXIS;
 583:main.c        ****     
 584:main.c        ****     I2C_write(GYRO_ADDR, GYRO_CTRL1_REG, 0x0F);             // set gyroscope into active mode
 585:main.c        ****     I2C_write(GYRO_ADDR, GYRO_CTRL4_REG, 0x30);             // set full scale selection to 2000dps
 586:main.c        ****     I2C_write(ACCEL_MAG_ADDR, ACCEL_CTRL1_REG, 0x37);           // set accelerometer & magnetometer
 587:main.c        ****     I2C_write(ACCEL_MAG_ADDR, ACCEL_CTRL7_REG, 0x22);
 588:main.c        ****     
 589:main.c        ****     
 590:main.c        ****     for(;;)
 591:main.c        ****     {
 592:main.c        ****         X_L_M = I2C_read(ACCEL_MAG_ADDR, OUT_X_L_M);
 593:main.c        ****         X_H_M = I2C_read(ACCEL_MAG_ADDR, OUT_X_H_M);
 594:main.c        ****         X_AXIS = convert_raw(X_L_M, X_H_M);
 595:main.c        ****         
ARM GAS  C:\Users\TUOMAS~1\AppData\Local\Temp\ccqcCZQb.s 			page 30


 596:main.c        ****         Y_L_M = I2C_read(ACCEL_MAG_ADDR, OUT_Y_L_M);
 597:main.c        ****         Y_H_M = I2C_read(ACCEL_MAG_ADDR, OUT_Y_H_M);
 598:main.c        ****         Y_AXIS = convert_raw(Y_L_M, Y_H_M);
 599:main.c        ****         
 600:main.c        ****         Z_L_M = I2C_read(ACCEL_MAG_ADDR, OUT_Z_L_M);
 601:main.c        ****         Z_H_M = I2C_read(ACCEL_MAG_ADDR, OUT_Z_H_M);
 602:main.c        ****         Z_AXIS = convert_raw(Z_L_M, Z_H_M);
 603:main.c        ****         
 604:main.c        ****         heading(X_AXIS, Y_AXIS);
 605:main.c        ****         printf("MAGNET: %d %d %d %d %d %d \r\n", X_L_M, X_H_M, Y_L_M, Y_H_M, Z_L_M, Z_H_M);
 606:main.c        ****         printf("%d %d %d \r\n", X_AXIS,Y_AXIS, Z_AXIS);
 607:main.c        ****         CyDelay(50);      
 608:main.c        ****     }
 609:main.c        **** }   
 610:main.c        **** //*/
 611:main.c        **** 
 612:main.c        **** 
 613:main.c        **** #if 0
 614:main.c        **** int rread(void)
 615:main.c        **** {
 616:main.c        ****     SC0_SetDriveMode(PIN_DM_STRONG);
 617:main.c        ****     SC0_Write(1);
 618:main.c        ****     CyDelayUs(10);
 619:main.c        ****     SC0_SetDriveMode(PIN_DM_DIG_HIZ);
 620:main.c        ****     Timer_1_Start();
 621:main.c        ****     uint16_t start = Timer_1_ReadCounter();
 622:main.c        ****     uint16_t end = 0;
 623:main.c        ****     while(!(Timer_1_ReadStatusRegister() & Timer_1_STATUS_TC)) {
 624:main.c        ****         if(SC0_Read() == 0 && end == 0) {
 625:main.c        ****             end = Timer_1_ReadCounter();
 626:main.c        ****         }
 627:main.c        ****     }
 628:main.c        ****     Timer_1_Stop();
 629:main.c        ****     
 630:main.c        ****     return (start - end);
 631:main.c        **** }
 632:main.c        **** #endif
 633:main.c        **** 
 634:main.c        **** /* Don't remove the functions below */
 635:main.c        **** int _write(int file, char *ptr, int len)
 636:main.c        **** {
 920              		.loc 1 636 0
 921              		.cfi_startproc
 922              		@ args = 0, pretend = 0, frame = 0
 923              		@ frame_needed = 0, uses_anonymous_args = 0
 924              	.LVL156:
 925 0000 F8B5     		push	{r3, r4, r5, r6, r7, lr}
 926              		.cfi_def_cfa_offset 24
 927              		.cfi_offset 3, -24
 928              		.cfi_offset 4, -20
 929              		.cfi_offset 5, -16
 930              		.cfi_offset 6, -12
 931              		.cfi_offset 7, -8
 932              		.cfi_offset 14, -4
 933 0002 0C46     		mov	r4, r1
 934 0004 1746     		mov	r7, r2
 935              	.LVL157:
ARM GAS  C:\Users\TUOMAS~1\AppData\Local\Temp\ccqcCZQb.s 			page 31


 637:main.c        ****     (void)file; /* Parameter is not used, suppress unused argument warning */
 638:main.c        **** 	int n;
 639:main.c        **** 	for(n = 0; n < len; n++) {
 936              		.loc 1 639 0
 937 0006 0025     		movs	r5, #0
 938 0008 0BE0     		b	.L71
 939              	.LVL158:
 940              	.L73:
 640:main.c        ****         if(*ptr == '\n') UART_1_PutChar('\r');
 941              		.loc 1 640 0
 942 000a 2378     		ldrb	r3, [r4]	@ zero_extendqisi2
 943 000c 0A2B     		cmp	r3, #10
 944 000e 02D1     		bne	.L72
 945              		.loc 1 640 0 is_stmt 0 discriminator 1
 946 0010 0D20     		movs	r0, #13
 947 0012 FFF7FEFF 		bl	UART_1_PutChar
 948              	.LVL159:
 949              	.L72:
 641:main.c        **** 		UART_1_PutChar(*ptr++);
 950              		.loc 1 641 0 is_stmt 1 discriminator 2
 951 0016 661C     		adds	r6, r4, #1
 952              	.LVL160:
 953 0018 2078     		ldrb	r0, [r4]	@ zero_extendqisi2
 954 001a FFF7FEFF 		bl	UART_1_PutChar
 955              	.LVL161:
 639:main.c        ****         if(*ptr == '\n') UART_1_PutChar('\r');
 956              		.loc 1 639 0 discriminator 2
 957 001e 0135     		adds	r5, r5, #1
 958              	.LVL162:
 959              		.loc 1 641 0 discriminator 2
 960 0020 3446     		mov	r4, r6
 961              	.LVL163:
 962              	.L71:
 639:main.c        ****         if(*ptr == '\n') UART_1_PutChar('\r');
 963              		.loc 1 639 0 discriminator 1
 964 0022 BD42     		cmp	r5, r7
 965 0024 F1DB     		blt	.L73
 642:main.c        **** 	}
 643:main.c        **** 	return len;
 644:main.c        **** }
 966              		.loc 1 644 0
 967 0026 3846     		mov	r0, r7
 968 0028 F8BD     		pop	{r3, r4, r5, r6, r7, pc}
 969              		.cfi_endproc
 970              	.LFE67:
 971              		.size	_write, .-_write
 972 002a 00BF     		.section	.text._read,"ax",%progbits
 973              		.align	2
 974              		.global	_read
 975              		.thumb
 976              		.thumb_func
 977              		.type	_read, %function
 978              	_read:
 979              	.LFB68:
 645:main.c        **** 
 646:main.c        **** int _read (int file, char *ptr, int count)
 647:main.c        **** {
ARM GAS  C:\Users\TUOMAS~1\AppData\Local\Temp\ccqcCZQb.s 			page 32


 980              		.loc 1 647 0
 981              		.cfi_startproc
 982              		@ args = 0, pretend = 0, frame = 0
 983              		@ frame_needed = 0, uses_anonymous_args = 0
 984              	.LVL164:
 985 0000 F8B5     		push	{r3, r4, r5, r6, r7, lr}
 986              		.cfi_def_cfa_offset 24
 987              		.cfi_offset 3, -24
 988              		.cfi_offset 4, -20
 989              		.cfi_offset 5, -16
 990              		.cfi_offset 6, -12
 991              		.cfi_offset 7, -8
 992              		.cfi_offset 14, -4
 993 0002 0F46     		mov	r7, r1
 994 0004 1446     		mov	r4, r2
 995              	.LVL165:
 648:main.c        ****     int chs = 0;
 996              		.loc 1 648 0
 997 0006 0026     		movs	r6, #0
 649:main.c        ****     char ch;
 650:main.c        ****  
 651:main.c        ****     (void)file; /* Parameter is not used, suppress unused argument warning */
 652:main.c        ****     while(count > 0) {
 998              		.loc 1 652 0
 999 0008 12E0     		b	.L77
 1000              	.LVL166:
 1001              	.L80:
 653:main.c        ****         ch = UART_1_GetChar();
 1002              		.loc 1 653 0
 1003 000a FFF7FEFF 		bl	UART_1_GetChar
 1004              	.LVL167:
 654:main.c        ****         if(ch != 0) {
 1005              		.loc 1 654 0
 1006 000e 0546     		mov	r5, r0
 1007 0010 70B1     		cbz	r0, .L77
 655:main.c        ****             UART_1_PutChar(ch);
 1008              		.loc 1 655 0
 1009 0012 FFF7FEFF 		bl	UART_1_PutChar
 1010              	.LVL168:
 656:main.c        ****             chs++;
 1011              		.loc 1 656 0
 1012 0016 0136     		adds	r6, r6, #1
 1013              	.LVL169:
 657:main.c        ****             if(ch == '\r') {
 1014              		.loc 1 657 0
 1015 0018 0D2D     		cmp	r5, #13
 1016 001a 03D1     		bne	.L78
 1017              	.LVL170:
 658:main.c        ****                 ch = '\n';
 659:main.c        ****                 UART_1_PutChar(ch);
 1018              		.loc 1 659 0
 1019 001c 0A20     		movs	r0, #10
 1020 001e FFF7FEFF 		bl	UART_1_PutChar
 1021              	.LVL171:
 658:main.c        ****                 ch = '\n';
 1022              		.loc 1 658 0
 1023 0022 0A25     		movs	r5, #10
ARM GAS  C:\Users\TUOMAS~1\AppData\Local\Temp\ccqcCZQb.s 			page 33


 1024              	.LVL172:
 1025              	.L78:
 660:main.c        ****             }
 661:main.c        ****             *ptr++ = ch;
 1026              		.loc 1 661 0
 1027 0024 7B1C     		adds	r3, r7, #1
 1028              	.LVL173:
 1029 0026 3D70     		strb	r5, [r7]
 662:main.c        ****             count--;
 1030              		.loc 1 662 0
 1031 0028 013C     		subs	r4, r4, #1
 1032              	.LVL174:
 663:main.c        ****             if(ch == '\n') break;
 1033              		.loc 1 663 0
 1034 002a 0A2D     		cmp	r5, #10
 1035 002c 02D0     		beq	.L79
 661:main.c        ****             count--;
 1036              		.loc 1 661 0
 1037 002e 1F46     		mov	r7, r3
 1038              	.LVL175:
 1039              	.L77:
 652:main.c        ****         ch = UART_1_GetChar();
 1040              		.loc 1 652 0
 1041 0030 002C     		cmp	r4, #0
 1042 0032 EADC     		bgt	.L80
 1043              	.LVL176:
 1044              	.L79:
 664:main.c        ****         }
 665:main.c        ****     }
 666:main.c        ****     return chs;
 667:main.c        **** }
 1045              		.loc 1 667 0
 1046 0034 3046     		mov	r0, r6
 1047 0036 F8BD     		pop	{r3, r4, r5, r6, r7, pc}
 1048              		.cfi_endproc
 1049              	.LFE68:
 1050              		.size	_read, .-_read
 1051              		.section	.rodata.str1.4,"aMS",%progbits,1
 1052              		.align	2
 1053              	.LC0:
 1054 0000 0A426F6F 		.ascii	"\012Boot\000"
 1054      7400
 1055 0006 0000     		.space	2
 1056              	.LC1:
 1057 0008 43616C63 		.ascii	"Calculated voltage %f\015\012\000"
 1057      756C6174 
 1057      65642076 
 1057      6F6C7461 
 1057      67652025 
 1058              	.LC2:
 1059 0020 2564202D 		.ascii	"%d - %d - %d - %d \012\000"
 1059      20256420 
 1059      2D202564 
 1059      202D2025 
 1059      64200A00 
 1060              	.LC3:
 1061 0034 25662C20 		.ascii	"%f, %f \012\000"
ARM GAS  C:\Users\TUOMAS~1\AppData\Local\Temp\ccqcCZQb.s 			page 34


 1061      2566200A 
 1061      00
 1062              		.text
 1063              	.Letext0:
 1064              		.file 2 "c:\\program files (x86)\\cypress\\psoc creator\\4.1\\psoc creator\\import\\gnu\\arm\\5.4.
 1065              		.file 3 "c:\\program files (x86)\\cypress\\psoc creator\\4.1\\psoc creator\\import\\gnu\\arm\\5.4.
 1066              		.file 4 "Generated_Source\\PSoC5/cytypes.h"
 1067              		.file 5 ".\\ZumoLibrary/Reflectance.h"
 1068              		.file 6 "Generated_Source\\PSoC5/ADC_Battery.h"
 1069              		.file 7 "Generated_Source\\PSoC5/BatteryLed.h"
 1070              		.file 8 ".\\ZumoLibrary/Beep.h"
 1071              		.file 9 "c:\\program files (x86)\\cypress\\psoc creator\\4.1\\psoc creator\\import\\gnu\\arm\\5.4.
 1072              		.file 10 ".\\ZumoLibrary/Motor.h"
 1073              		.file 11 "Generated_Source\\PSoC5/SW1.h"
 1074              		.file 12 "Generated_Source\\PSoC5/CyLib.h"
 1075              		.file 13 "Generated_Source\\PSoC5/UART_1.h"
 1076              		.file 14 "Generated_Source\\PSoC5/sensor_isr.h"
 1077              		.file 15 "Generated_Source\\PSoC5/IR_led.h"
 1078              		.file 16 "Generated_Source\\PSoC5/core_cm3.h"
 1079              		.file 17 "<built-in>"